; Function Attrs: mustprogress nounwind uwtable
define dso_local noundef zeroext i1 @_ZN5vcpkgeqERKNS_11DateVersionES2_(ptr noundef nonnull align 8 dereferenceable(88) %0, ptr noundef nonnull align 8 dereferenceable(88) %1) local_unnamed_addr #0 {
  %3 = getelementptr inbounds i8, ptr %0, i64 32
  %4 = tail call noundef ptr @_ZNKSt7__cxx1112basic_stringIcSt11char_traitsIcESaIcEE5c_strEv(ptr noundef nonnull align 8 dereferenceable(32) %3) #19
  %5 = getelementptr inbounds i8, ptr %1, i64 32
  %6 = tail call noundef ptr @_ZNKSt7__cxx1112basic_stringIcSt11char_traitsIcESaIcEE5c_strEv(ptr noundef nonnull align 8 dereferenceable(32) %5) #19
  %7 = tail call i32 @strcmp(ptr noundef nonnull dereferenceable(1) %4, ptr noundef nonnull dereferenceable(1) %6) #21
  %.not.i = icmp eq i32 %7, 0
  br i1 %.not.i, label %8, label %_ZN5vcpkg7compareERKNS_11DateVersionES2_.exit

8:                                                ; preds = %2
  %9 = getelementptr inbounds i8, ptr %0, i64 64
  %10 = getelementptr inbounds i8, ptr %1, i64 64
  %11 = load ptr, ptr %9, align 8
  %12 = getelementptr inbounds i8, ptr %0, i64 72
  %13 = load ptr, ptr %12, align 8
  %14 = load ptr, ptr %10, align 8
  %15 = getelementptr inbounds i8, ptr %1, i64 72
  %16 = load ptr, ptr %15, align 8
  %17 = icmp ne ptr %11, %13
  %18 = icmp ne ptr %14, %16
  %or.cond21.i.i = select i1 %17, i1 %18, i1 false
  br i1 %or.cond21.i.i, label %.lr.ph.i.i, label %.critedge.i.i

.lr.ph.i.i:                                       ; preds = %8, %21
  %.sroa.015.023.i.i = phi ptr [ %22, %21 ], [ %11, %8 ]
  %.sroa.09.022.i.i = phi ptr [ %23, %21 ], [ %14, %8 ]
  %19 = load i64, ptr %.sroa.015.023.i.i, align 8
  %20 = load i64, ptr %.sroa.09.022.i.i, align 8
  %.not = icmp eq i64 %19, %20
  br i1 %.not, label %21, label %_ZN5vcpkg7compareERKNS_11DateVersionES2_.exit

21:                                               ; preds = %.lr.ph.i.i
  %22 = getelementptr inbounds i8, ptr %.sroa.015.023.i.i, i64 8
  %23 = getelementptr inbounds i8, ptr %.sroa.09.022.i.i, i64 8
  %24 = icmp ne ptr %22, %13
  %25 = icmp ne ptr %23, %16
  %or.cond.i.i = select i1 %24, i1 %25, i1 false
  br i1 %or.cond.i.i, label %.lr.ph.i.i, label %.critedge.i.i, !llvm.loop !37

.critedge.i.i:                                    ; preds = %21, %8
  %.sroa.09.0.lcssa.i.i = phi ptr [ %14, %8 ], [ %23, %21 ]
  %.sroa.015.0.lcssa.i.i = phi ptr [ %11, %8 ], [ %22, %21 ]
  %26 = icmp eq ptr %.sroa.015.0.lcssa.i.i, %13
  %27 = icmp ne ptr %.sroa.09.0.lcssa.i.i, %16
  %28 = xor i1 %27, %26
  br label %_ZN5vcpkg7compareERKNS_11DateVersionES2_.exit

_ZN5vcpkg7compareERKNS_11DateVersionES2_.exit:    ; preds = %.lr.ph.i.i, %2, %.critedge.i.i
  %.0.i = phi i1 [ %28, %.critedge.i.i ], [ false, %2 ], [ false, %.lr.ph.i.i ]
  ret i1 %.0.i
}